target datalayout = "e-m:e-p270:32:32-p271:32:32-p272:64:64-i64:64-i128:128-f80:128-n8:16:32:64-S128"
target triple = "x86_64-unknown-linux-gnu"

%"class.OpenImageIO_v2_6_0::pvt::TextureSystemImpl" = type <{ %"class.OpenImageIO_v2_6_0::TextureSystem", ptr, i8, [3 x i8], %"class.Imath_2_5::Matrix44", %"class.Imath_2_5::Matrix44", i8, i8, [2 x i8], i32, i32, %"class.boost::thread_specific_ptr", %"class.std::unique_ptr", i32, [4 x i8] }>
%"class.OpenImageIO_v2_6_0::TextureSystem" = type { ptr }
%"class.Imath_2_5::Matrix44" = type { [4 x [4 x float]] }
%"class.boost::thread_specific_ptr" = type { ptr }
%"class.std::unique_ptr" = type { %"struct.std::__uniq_ptr_data" }
%"struct.std::__uniq_ptr_data" = type { %"class.std::__uniq_ptr_impl" }
%"class.std::__uniq_ptr_impl" = type { %"class.std::tuple" }
%"class.std::tuple" = type { %"struct.std::_Tuple_impl" }
%"struct.std::_Tuple_impl" = type { %"struct.std::_Head_base.3" }
%"struct.std::_Head_base.3" = type { ptr }
%"class.OpenImageIO_v2_6_0::ustring" = type { ptr }

; Function Attrs: mustprogress uwtable
define linkonce_odr hidden noundef ptr @_ZN18OpenImageIO_v2_6_03pvt17TextureSystemImpl16find_texturefileENS_7ustringEPNS0_23ImageCachePerThreadInfoEPKNS_10TextureOptE(ptr noundef nonnull align 8 dereferenceable(184) %this, ptr noundef %filename, ptr noundef %thread_info, ptr noundef %options) #7 comdat align 2 personality ptr @__gxx_personality_v0 {
entry:
  %this.addr = alloca ptr, align 8
  %filename.indirect_addr = alloca ptr, align 8
  %thread_info.addr = alloca ptr, align 8
  %options.addr = alloca ptr, align 8
  %agg.tmp = alloca %"class.OpenImageIO_v2_6_0::ustring", align 8
  %exn.slot = alloca ptr, align 8
  %ehselector.slot = alloca i32, align 4
  store ptr %this, ptr %this.addr, align 8
  store ptr %filename, ptr %filename.indirect_addr, align 8
  store ptr %thread_info, ptr %thread_info.addr, align 8
  store ptr %options, ptr %options.addr, align 8
  %this1 = load ptr, ptr %this.addr, align 8
  %m_imagecache = getelementptr inbounds %"class.OpenImageIO_v2_6_0::pvt::TextureSystemImpl", ptr %this1, i32 0, i32 1
  %0 = load ptr, ptr %m_imagecache, align 8
  call void @_ZN18OpenImageIO_v2_6_07ustringC2ERKS0_(ptr noundef nonnull align 8 dereferenceable(8) %agg.tmp, ptr noundef nonnull align 8 dereferenceable(8) %filename) #5
  %1 = load ptr, ptr %thread_info.addr, align 8
  %call = invoke noundef ptr @_ZN18OpenImageIO_v2_6_03pvt14ImageCacheImpl9find_fileENS_7ustringEPNS0_23ImageCachePerThreadInfoEPFPNS_10ImageInputEvEPKNS_9ImageSpecEb(ptr noundef nonnull align 64 dereferenceable(25280) %0, ptr noundef %agg.tmp, ptr noundef %1, ptr noundef null, ptr noundef null, i1 noundef zeroext false)
          to label %invoke.cont unwind label %lpad

invoke.cont:                                      ; preds = %entry
  call void @_ZN18OpenImageIO_v2_6_07ustringD2Ev(ptr noundef nonnull align 8 dereferenceable(8) %agg.tmp) #5
  ret ptr %call

lpad:                                             ; preds = %entry
  %2 = landingpad { ptr, i32 }
          cleanup
  %3 = extractvalue { ptr, i32 } %2, 0
  store ptr %3, ptr %exn.slot, align 8
  %4 = extractvalue { ptr, i32 } %2, 1
  store i32 %4, ptr %ehselector.slot, align 4
  call void @_ZN18OpenImageIO_v2_6_07ustringD2Ev(ptr noundef nonnull align 8 dereferenceable(8) %agg.tmp) #5
  br label %eh.resume

eh.resume:                                        ; preds = %lpad
  %exn = load ptr, ptr %exn.slot, align 8
  %sel = load i32, ptr %ehselector.slot, align 4
  %lpad.val = insertvalue { ptr, i32 } poison, ptr %exn, 0
  %lpad.val2 = insertvalue { ptr, i32 } %lpad.val, i32 %sel, 1
  resume { ptr, i32 } %lpad.val2
}

; Function Attrs: mustprogress nounwind uwtable
define linkonce_odr void @_ZN18OpenImageIO_v2_6_07ustringD2Ev(ptr noundef nonnull align 8 dereferenceable(8) %this) unnamed_addr #1 comdat align 2 {
entry:
  %this.addr = alloca ptr, align 8
  store ptr %this, ptr %this.addr, align 8
  ret void
}

; Function Attrs: mustprogress uwtable
define linkonce_odr hidden noundef ptr @_ZN18OpenImageIO_v2_6_03pvt17TextureSystemImpl18get_texture_handleENS_7ustringEPNS_13TextureSystem9PerthreadEPKNS_10TextureOptE(ptr noundef nonnull align 8 dereferenceable(184) %this, ptr noundef %filename, ptr noundef %thread, ptr noundef %options) unnamed_addr #7 comdat align 2 personality ptr @__gxx_personality_v0 {
entry:
  %this.addr = alloca ptr, align 8
  %filename.indirect_addr = alloca ptr, align 8
  %thread.addr = alloca ptr, align 8
  %options.addr = alloca ptr, align 8
  %thread_info = alloca ptr, align 8
  %agg.tmp = alloca %"class.OpenImageIO_v2_6_0::ustring", align 8
  %exn.slot = alloca ptr, align 8
  %ehselector.slot = alloca i32, align 4
  store ptr %this, ptr %this.addr, align 8
  store ptr %filename, ptr %filename.indirect_addr, align 8
  store ptr %thread, ptr %thread.addr, align 8
  store ptr %options, ptr %options.addr, align 8
  %this1 = load ptr, ptr %this.addr, align 8
  %0 = load ptr, ptr %thread.addr, align 8
  %tobool = icmp ne ptr %0, null
  br i1 %tobool, label %cond.true, label %cond.false

cond.true:                                        ; preds = %entry
  %1 = load ptr, ptr %thread.addr, align 8
  br label %cond.end

cond.false:                                       ; preds = %entry
  %m_imagecache = getelementptr inbounds %"class.OpenImageIO_v2_6_0::pvt::TextureSystemImpl", ptr %this1, i32 0, i32 1
  %2 = load ptr, ptr %m_imagecache, align 8
  %call = call noundef ptr @_ZN18OpenImageIO_v2_6_03pvt14ImageCacheImpl18get_perthread_infoEPNS0_23ImageCachePerThreadInfoE(ptr noundef nonnull align 64 dereferenceable(25280) %2, ptr noundef null)
  br label %cond.end

cond.end:                                         ; preds = %cond.false, %cond.true
  %cond = phi ptr [ %1, %cond.true ], [ %call, %cond.false ]
  store ptr %cond, ptr %thread_info, align 8
  call void @_ZN18OpenImageIO_v2_6_07ustringC2ERKS0_(ptr noundef nonnull align 8 dereferenceable(8) %agg.tmp, ptr noundef nonnull align 8 dereferenceable(8) %filename) #5
  %3 = load ptr, ptr %thread_info, align 8
  %4 = load ptr, ptr %options.addr, align 8
  %call2 = invoke noundef ptr @_ZN18OpenImageIO_v2_6_03pvt17TextureSystemImpl16find_texturefileENS_7ustringEPNS0_23ImageCachePerThreadInfoEPKNS_10TextureOptE(ptr noundef nonnull align 8 dereferenceable(184) %this1, ptr noundef %agg.tmp, ptr noundef %3, ptr noundef %4)
          to label %invoke.cont unwind label %lpad

invoke.cont:                                      ; preds = %cond.end
  call void @_ZN18OpenImageIO_v2_6_07ustringD2Ev(ptr noundef nonnull align 8 dereferenceable(8) %agg.tmp) #5
  ret ptr %call2

lpad:                                             ; preds = %cond.end
  %5 = landingpad { ptr, i32 }
          cleanup
  %6 = extractvalue { ptr, i32 } %5, 0
  store ptr %6, ptr %exn.slot, align 8
  %7 = extractvalue { ptr, i32 } %5, 1
  store i32 %7, ptr %ehselector.slot, align 4
  call void @_ZN18OpenImageIO_v2_6_07ustringD2Ev(ptr noundef nonnull align 8 dereferenceable(8) %agg.tmp) #5
  br label %eh.resume

eh.resume:                                        ; preds = %lpad
  %exn = load ptr, ptr %exn.slot, align 8
  %sel = load i32, ptr %ehselector.slot, align 4
  %lpad.val = insertvalue { ptr, i32 } poison, ptr %exn, 0
  %lpad.val3 = insertvalue { ptr, i32 } %lpad.val, i32 %sel, 1
  resume { ptr, i32 } %lpad.val3
}

; Function Attrs: mustprogress nounwind uwtable
define linkonce_odr void @_ZN18OpenImageIO_v2_6_07ustringC2ERKS0_(ptr noundef nonnull align 8 dereferenceable(8) %this, ptr noundef nonnull align 8 dereferenceable(8) %str) unnamed_addr #1 comdat align 2 {
entry:
  %this.addr = alloca ptr, align 8
  %str.addr = alloca ptr, align 8
  store ptr %this, ptr %this.addr, align 8
  store ptr %str, ptr %str.addr, align 8
  %this1 = load ptr, ptr %this.addr, align 8
  %m_chars = getelementptr inbounds %"class.OpenImageIO_v2_6_0::ustring", ptr %this1, i32 0, i32 0
  %0 = load ptr, ptr %str.addr, align 8
  %m_chars2 = getelementptr inbounds %"class.OpenImageIO_v2_6_0::ustring", ptr %0, i32 0, i32 0
  %1 = load ptr, ptr %m_chars2, align 8
  store ptr %1, ptr %m_chars, align 8
  ret void
}

; Function Attrs: mustprogress uwtable
define linkonce_odr hidden noundef ptr @_ZN18OpenImageIO_v2_6_03pvt17TextureSystemImpl18get_perthread_infoEPNS_13TextureSystem9PerthreadE(ptr noundef nonnull align 8 dereferenceable(184) %this, ptr noundef %thread_info) unnamed_addr #7 comdat align 2 {
entry:
  %this.addr = alloca ptr, align 8
  %thread_info.addr = alloca ptr, align 8
  store ptr %this, ptr %this.addr, align 8
  store ptr %thread_info, ptr %thread_info.addr, align 8
  %this1 = load ptr, ptr %this.addr, align 8
  %m_imagecache = getelementptr inbounds %"class.OpenImageIO_v2_6_0::pvt::TextureSystemImpl", ptr %this1, i32 0, i32 1
  %0 = load ptr, ptr %m_imagecache, align 8
  %1 = load ptr, ptr %thread_info.addr, align 8
  %call = call noundef ptr @_ZN18OpenImageIO_v2_6_03pvt14ImageCacheImpl18get_perthread_infoEPNS0_23ImageCachePerThreadInfoE(ptr noundef nonnull align 64 dereferenceable(25280) %0, ptr noundef %1)
  ret ptr %call
}

; Function Attrs: mustprogress uwtable
define hidden noundef zeroext i1 @_ZN18OpenImageIO_v2_6_03pvt17TextureSystemImpl7textureENS_7ustringERNS_15TextureOptBatchEmPKfS6_S6_S6_S6_S6_iPfS7_S7_(ptr noundef nonnull align 8 dereferenceable(184) %this, ptr noundef %filename, ptr noundef nonnull align 64 dereferenceable(512) %options, i64 noundef %mask, ptr noundef %s, ptr noundef %t, ptr noundef %dsdx, ptr noundef %dtdx, ptr noundef %dsdy, ptr noundef %dtdy, i32 noundef %nchannels, ptr noundef %result, ptr noundef %dresultds, ptr noundef %dresultdt) unnamed_addr #7 align 2 personality ptr @__gxx_personality_v0 {
entry:
  %this.addr = alloca ptr, align 8
  %filename.indirect_addr = alloca ptr, align 8
  %options.addr = alloca ptr, align 8
  %mask.addr = alloca i64, align 8
  %s.addr = alloca ptr, align 8
  %t.addr = alloca ptr, align 8
  %dsdx.addr = alloca ptr, align 8
  %dtdx.addr = alloca ptr, align 8
  %dsdy.addr = alloca ptr, align 8
  %dtdy.addr = alloca ptr, align 8
  %nchannels.addr = alloca i32, align 4
  %result.addr = alloca ptr, align 8
  %dresultds.addr = alloca ptr, align 8
  %dresultdt.addr = alloca ptr, align 8
  %thread_info = alloca ptr, align 8
  %texture_handle = alloca ptr, align 8
  %agg.tmp = alloca %"class.OpenImageIO_v2_6_0::ustring", align 8
  %exn.slot = alloca ptr, align 8
  %ehselector.slot = alloca i32, align 4
  store ptr %this, ptr %this.addr, align 8
  store ptr %filename, ptr %filename.indirect_addr, align 8
  store ptr %options, ptr %options.addr, align 8
  store i64 %mask, ptr %mask.addr, align 8
  store ptr %s, ptr %s.addr, align 8
  store ptr %t, ptr %t.addr, align 8
  store ptr %dsdx, ptr %dsdx.addr, align 8
  store ptr %dtdx, ptr %dtdx.addr, align 8
  store ptr %dsdy, ptr %dsdy.addr, align 8
  store ptr %dtdy, ptr %dtdy.addr, align 8
  store i32 %nchannels, ptr %nchannels.addr, align 4
  store ptr %result, ptr %result.addr, align 8
  store ptr %dresultds, ptr %dresultds.addr, align 8
  store ptr %dresultdt, ptr %dresultdt.addr, align 8
  %this1 = load ptr, ptr %this.addr, align 8
  %call = call noundef ptr @_ZN18OpenImageIO_v2_6_03pvt17TextureSystemImpl18get_perthread_infoEPNS_13TextureSystem9PerthreadE(ptr noundef nonnull align 8 dereferenceable(184) %this1, ptr noundef null)
  store ptr %call, ptr %thread_info, align 8
  call void @_ZN18OpenImageIO_v2_6_07ustringC2ERKS0_(ptr noundef nonnull align 8 dereferenceable(8) %agg.tmp, ptr noundef nonnull align 8 dereferenceable(8) %filename) #5
  %0 = load ptr, ptr %thread_info, align 8
  %call2 = invoke noundef ptr @_ZN18OpenImageIO_v2_6_03pvt17TextureSystemImpl18get_texture_handleENS_7ustringEPNS_13TextureSystem9PerthreadEPKNS_10TextureOptE(ptr noundef nonnull align 8 dereferenceable(184) %this1, ptr noundef %agg.tmp, ptr noundef %0, ptr noundef null)
          to label %invoke.cont unwind label %lpad

invoke.cont:                                      ; preds = %entry
  call void @_ZN18OpenImageIO_v2_6_07ustringD2Ev(ptr noundef nonnull align 8 dereferenceable(8) %agg.tmp) #5
  store ptr %call2, ptr %texture_handle, align 8
  %1 = load ptr, ptr %texture_handle, align 8
  %2 = load ptr, ptr %thread_info, align 8
  %3 = load ptr, ptr %options.addr, align 8
  %4 = load i64, ptr %mask.addr, align 8
  %5 = load ptr, ptr %s.addr, align 8
  %6 = load ptr, ptr %t.addr, align 8
  %7 = load ptr, ptr %dsdx.addr, align 8
  %8 = load ptr, ptr %dtdx.addr, align 8
  %9 = load ptr, ptr %dsdy.addr, align 8
  %10 = load ptr, ptr %dtdy.addr, align 8
  %11 = load i32, ptr %nchannels.addr, align 4
  %12 = load ptr, ptr %result.addr, align 8
  %13 = load ptr, ptr %dresultds.addr, align 8
  %14 = load ptr, ptr %dresultdt.addr, align 8
  %call3 = call noundef zeroext i1 @_ZN18OpenImageIO_v2_6_03pvt17TextureSystemImpl7textureEPNS_13TextureSystem13TextureHandleEPNS2_9PerthreadERNS_15TextureOptBatchEmPKfSA_SA_SA_SA_SA_iPfSB_SB_(ptr noundef nonnull align 8 dereferenceable(184) %this1, ptr noundef %1, ptr noundef %2, ptr noundef nonnull align 64 dereferenceable(512) %3, i64 noundef %4, ptr noundef %5, ptr noundef %6, ptr noundef %7, ptr noundef %8, ptr noundef %9, ptr noundef %10, i32 noundef %11, ptr noundef %12, ptr noundef %13, ptr noundef %14)
  ret i1 %call3

lpad:                                             ; preds = %entry
  %15 = landingpad { ptr, i32 }
          cleanup
  %16 = extractvalue { ptr, i32 } %15, 0
  store ptr %16, ptr %exn.slot, align 8
  %17 = extractvalue { ptr, i32 } %15, 1
  store i32 %17, ptr %ehselector.slot, align 4
  call void @_ZN18OpenImageIO_v2_6_07ustringD2Ev(ptr noundef nonnull align 8 dereferenceable(8) %agg.tmp) #5
  br label %eh.resume

eh.resume:                                        ; preds = %lpad
  %exn = load ptr, ptr %exn.slot, align 8
  %sel = load i32, ptr %ehselector.slot, align 4
  %lpad.val = insertvalue { ptr, i32 } poison, ptr %exn, 0
  %lpad.val4 = insertvalue { ptr, i32 } %lpad.val, i32 %sel, 1
  resume { ptr, i32 } %lpad.val4
}